; Function Attrs: mustprogress nounwind uwtable
define internal void @"_ZN4absl12lts_2024072222internal_any_invocable23RemoteManagerNontrivialIZN17grpc_event_engine12experimental18ThreadyEventEngine14CreateListenerENS0_12AnyInvocableIFvSt10unique_ptrINS4_11EventEngine8EndpointESt14default_deleteIS9_EENS4_15MemoryAllocatorEEEENS6_IFvNS0_6StatusEEEERKNS4_14EndpointConfigES7_INS4_22MemoryAllocatorFactoryESA_ISM_EEE3$_0EEvNS1_14FunctionToCallEPNS1_15TypeErasedStateESS_"(i1 noundef zeroext %0, ptr noundef readonly captures(none) %1, ptr noundef writeonly captures(none) %2) #5 personality ptr @__gxx_personality_v0 {
  %4 = load ptr, ptr %1, align 16, !tbaa !50
  br i1 %0, label %6, label %5

5:                                                ; preds = %3
  store ptr %4, ptr %2, align 16, !tbaa !50
  br label %54

6:                                                ; preds = %3
  %7 = icmp eq ptr %4, null
  br i1 %7, label %54, label %8

8:                                                ; preds = %6
  %9 = getelementptr inbounds nuw i8, ptr %4, i64 32
  %10 = load ptr, ptr %9, align 8, !tbaa !49
  %.not.i.i.i = icmp eq ptr %10, null
  br i1 %.not.i.i.i, label %_ZNSt12__shared_ptrIN4absl12lts_2024072212AnyInvocableIFvSt10unique_ptrIN17grpc_event_engine12experimental11EventEngine8EndpointESt14default_deleteIS7_EENS5_15MemoryAllocatorEEEELN9__gnu_cxx12_Lock_policyE2EED2Ev.exit.i, label %11

11:                                               ; preds = %8
  %12 = getelementptr inbounds nuw i8, ptr %10, i64 8
  %13 = load atomic i64, ptr %12 acquire, align 8
  %14 = icmp eq i64 %13, 4294967297
  %15 = trunc i64 %13 to i32
  br i1 %14, label %16, label %24

16:                                               ; preds = %11
  store i32 0, ptr %12, align 8, !tbaa !30
  %17 = getelementptr inbounds nuw i8, ptr %10, i64 12
  store i32 0, ptr %17, align 4, !tbaa !33
  %18 = load ptr, ptr %10, align 8, !tbaa !21
  %19 = getelementptr inbounds nuw i8, ptr %18, i64 16
  %20 = load ptr, ptr %19, align 8
  tail call void %20(ptr noundef nonnull align 8 dereferenceable(16) %10) #26
  %21 = load ptr, ptr %10, align 8, !tbaa !21
  %22 = getelementptr inbounds nuw i8, ptr %21, i64 24
  %23 = load ptr, ptr %22, align 8
  tail call void %23(ptr noundef nonnull align 8 dereferenceable(16) %10) #26
  br label %_ZNSt12__shared_ptrIN4absl12lts_2024072212AnyInvocableIFvSt10unique_ptrIN17grpc_event_engine12experimental11EventEngine8EndpointESt14default_deleteIS7_EENS5_15MemoryAllocatorEEEELN9__gnu_cxx12_Lock_policyE2EED2Ev.exit.i

24:                                               ; preds = %11
  %25 = load i8, ptr @__libc_single_threaded, align 1, !tbaa !50
  %.not.i.i.i.i = icmp eq i8 %25, 0
  br i1 %.not.i.i.i.i, label %28, label %26

26:                                               ; preds = %24
  %27 = add nsw i32 %15, -1
  store i32 %27, ptr %12, align 4, !tbaa !51
  br label %_ZN9__gnu_cxx27__exchange_and_add_dispatchEPii.exit.i.i.i.i

28:                                               ; preds = %24
  %29 = atomicrmw volatile add ptr %12, i32 -1 acq_rel, align 4
  br label %_ZN9__gnu_cxx27__exchange_and_add_dispatchEPii.exit.i.i.i.i

_ZN9__gnu_cxx27__exchange_and_add_dispatchEPii.exit.i.i.i.i: ; preds = %28, %26
  %.0.i.i.i.i.i = phi i32 [ %15, %26 ], [ %29, %28 ]
  %30 = icmp eq i32 %.0.i.i.i.i.i, 1
  br i1 %30, label %31, label %_ZNSt12__shared_ptrIN4absl12lts_2024072212AnyInvocableIFvSt10unique_ptrIN17grpc_event_engine12experimental11EventEngine8EndpointESt14default_deleteIS7_EENS5_15MemoryAllocatorEEEELN9__gnu_cxx12_Lock_policyE2EED2Ev.exit.i, !prof !26

31:                                               ; preds = %_ZN9__gnu_cxx27__exchange_and_add_dispatchEPii.exit.i.i.i.i
  tail call void @_ZNSt16_Sp_counted_baseILN9__gnu_cxx12_Lock_policyE2EE24_M_release_last_use_coldEv(ptr noundef nonnull align 8 dereferenceable(16) %10) #26
  br label %_ZNSt12__shared_ptrIN4absl12lts_2024072212AnyInvocableIFvSt10unique_ptrIN17grpc_event_engine12experimental11EventEngine8EndpointESt14default_deleteIS7_EENS5_15MemoryAllocatorEEEELN9__gnu_cxx12_Lock_policyE2EED2Ev.exit.i

_ZNSt12__shared_ptrIN4absl12lts_2024072212AnyInvocableIFvSt10unique_ptrIN17grpc_event_engine12experimental11EventEngine8EndpointESt14default_deleteIS7_EENS5_15MemoryAllocatorEEEELN9__gnu_cxx12_Lock_policyE2EED2Ev.exit.i: ; preds = %31, %_ZN9__gnu_cxx27__exchange_and_add_dispatchEPii.exit.i.i.i.i, %16, %8
  %32 = getelementptr inbounds nuw i8, ptr %4, i64 16
  %.val.i = load ptr, ptr %32, align 8, !tbaa !49
  %.not.i.i1.i = icmp eq ptr %.val.i, null
  br i1 %.not.i.i1.i, label %"_ZZN17grpc_event_engine12experimental18ThreadyEventEngine14CreateListenerEN4absl12lts_2024072212AnyInvocableIFvSt10unique_ptrINS0_11EventEngine8EndpointESt14default_deleteIS7_EENS0_15MemoryAllocatorEEEENS4_IFvNS3_6StatusEEEERKNS0_14EndpointConfigES5_INS0_22MemoryAllocatorFactoryES8_ISK_EEEN3$_0D2Ev.exit", label %33

33:                                               ; preds = %_ZNSt12__shared_ptrIN4absl12lts_2024072212AnyInvocableIFvSt10unique_ptrIN17grpc_event_engine12experimental11EventEngine8EndpointESt14default_deleteIS7_EENS5_15MemoryAllocatorEEEELN9__gnu_cxx12_Lock_policyE2EED2Ev.exit.i
  %34 = getelementptr inbounds nuw i8, ptr %.val.i, i64 8
  %35 = load atomic i64, ptr %34 acquire, align 8
  %36 = icmp eq i64 %35, 4294967297
  %37 = trunc i64 %35 to i32
  br i1 %36, label %38, label %46

38:                                               ; preds = %33
  store i32 0, ptr %34, align 8, !tbaa !30
  %39 = getelementptr inbounds nuw i8, ptr %.val.i, i64 12
  store i32 0, ptr %39, align 4, !tbaa !33
  %40 = load ptr, ptr %.val.i, align 8, !tbaa !21
  %41 = getelementptr inbounds nuw i8, ptr %40, i64 16
  %42 = load ptr, ptr %41, align 8
  tail call void %42(ptr noundef nonnull align 8 dereferenceable(16) %.val.i) #26
  %43 = load ptr, ptr %.val.i, align 8, !tbaa !21
  %44 = getelementptr inbounds nuw i8, ptr %43, i64 24
  %45 = load ptr, ptr %44, align 8
  tail call void %45(ptr noundef nonnull align 8 dereferenceable(16) %.val.i) #26
  br label %"_ZZN17grpc_event_engine12experimental18ThreadyEventEngine14CreateListenerEN4absl12lts_2024072212AnyInvocableIFvSt10unique_ptrINS0_11EventEngine8EndpointESt14default_deleteIS7_EENS0_15MemoryAllocatorEEEENS4_IFvNS3_6StatusEEEERKNS0_14EndpointConfigES5_INS0_22MemoryAllocatorFactoryES8_ISK_EEEN3$_0D2Ev.exit"

46:                                               ; preds = %33
  %47 = load i8, ptr @__libc_single_threaded, align 1, !tbaa !50
  %.not.i.i.i2.i = icmp eq i8 %47, 0
  br i1 %.not.i.i.i2.i, label %50, label %48

48:                                               ; preds = %46
  %49 = add nsw i32 %37, -1
  store i32 %49, ptr %34, align 4, !tbaa !51
  br label %_ZN9__gnu_cxx27__exchange_and_add_dispatchEPii.exit.i.i.i3.i

50:                                               ; preds = %46
  %51 = atomicrmw volatile add ptr %34, i32 -1 acq_rel, align 4
  br label %_ZN9__gnu_cxx27__exchange_and_add_dispatchEPii.exit.i.i.i3.i

_ZN9__gnu_cxx27__exchange_and_add_dispatchEPii.exit.i.i.i3.i: ; preds = %50, %48
  %.0.i.i.i.i4.i = phi i32 [ %37, %48 ], [ %51, %50 ]
  %52 = icmp eq i32 %.0.i.i.i.i4.i, 1
  br i1 %52, label %53, label %"_ZZN17grpc_event_engine12experimental18ThreadyEventEngine14CreateListenerEN4absl12lts_2024072212AnyInvocableIFvSt10unique_ptrINS0_11EventEngine8EndpointESt14default_deleteIS7_EENS0_15MemoryAllocatorEEEENS4_IFvNS3_6StatusEEEERKNS0_14EndpointConfigES5_INS0_22MemoryAllocatorFactoryES8_ISK_EEEN3$_0D2Ev.exit", !prof !26

53:                                               ; preds = %_ZN9__gnu_cxx27__exchange_and_add_dispatchEPii.exit.i.i.i3.i
  tail call void @_ZNSt16_Sp_counted_baseILN9__gnu_cxx12_Lock_policyE2EE24_M_release_last_use_coldEv(ptr noundef nonnull align 8 dereferenceable(16) %.val.i) #26
  br label %"_ZZN17grpc_event_engine12experimental18ThreadyEventEngine14CreateListenerEN4absl12lts_2024072212AnyInvocableIFvSt10unique_ptrINS0_11EventEngine8EndpointESt14default_deleteIS7_EENS0_15MemoryAllocatorEEEENS4_IFvNS3_6StatusEEEERKNS0_14EndpointConfigES5_INS0_22MemoryAllocatorFactoryES8_ISK_EEEN3$_0D2Ev.exit"

"_ZZN17grpc_event_engine12experimental18ThreadyEventEngine14CreateListenerEN4absl12lts_2024072212AnyInvocableIFvSt10unique_ptrINS0_11EventEngine8EndpointESt14default_deleteIS7_EENS0_15MemoryAllocatorEEEENS4_IFvNS3_6StatusEEEERKNS0_14EndpointConfigES5_INS0_22MemoryAllocatorFactoryES8_ISK_EEEN3$_0D2Ev.exit": ; preds = %_ZNSt12__shared_ptrIN4absl12lts_2024072212AnyInvocableIFvSt10unique_ptrIN17grpc_event_engine12experimental11EventEngine8EndpointESt14default_deleteIS7_EENS5_15MemoryAllocatorEEEELN9__gnu_cxx12_Lock_policyE2EED2Ev.exit.i, %38, %_ZN9__gnu_cxx27__exchange_and_add_dispatchEPii.exit.i.i.i3.i, %53
  tail call void @_ZdlPvm(ptr noundef nonnull %4, i64 noundef 40) #31
  br label %54

54:                                               ; preds = %6, %"_ZZN17grpc_event_engine12experimental18ThreadyEventEngine14CreateListenerEN4absl12lts_2024072212AnyInvocableIFvSt10unique_ptrINS0_11EventEngine8EndpointESt14default_deleteIS7_EENS0_15MemoryAllocatorEEEENS4_IFvNS3_6StatusEEEERKNS0_14EndpointConfigES5_INS0_22MemoryAllocatorFactoryES8_ISK_EEEN3$_0D2Ev.exit", %5
  ret void
}